target datalayout = "e-m:e-p270:32:32-p271:32:32-p272:64:64-i64:64-i128:128-f80:128-n8:16:32:64-S128"
target triple = "x86_64-pc-linux-gnu"

%struct.asn1_string_st = type { i32, i32, ptr, i64 }

@.str.6 = private unnamed_addr constant [2 x i8] c"\0A\00", align 1
@.str.22 = private unnamed_addr constant [20 x i8] c" (%ld unused bits)\0A\00", align 1

; Function Attrs: nounwind uwtable
define internal i32 @asn1_print_obstring_ctx(ptr noundef %0, ptr noundef %1, i32 noundef %2, ptr noundef %3) #0 {
  %5 = alloca i32, align 4
  %6 = alloca ptr, align 8
  %7 = alloca ptr, align 8
  %8 = alloca i32, align 4
  %9 = alloca ptr, align 8
  store ptr %0, ptr %6, align 8, !tbaa !19
  store ptr %1, ptr %7, align 8, !tbaa !66
  store i32 %2, ptr %8, align 4, !tbaa !23
  store ptr %3, ptr %9, align 8, !tbaa !6
  %10 = load ptr, ptr %7, align 8, !tbaa !66
  %11 = getelementptr inbounds nuw %struct.asn1_string_st, ptr %10, i32 0, i32 1
  %12 = load i32, ptr %11, align 4, !tbaa !68
  %13 = icmp eq i32 %12, 3
  br i1 %13, label %14, label %24

14:                                               ; preds = %4
  %15 = load ptr, ptr %6, align 8, !tbaa !19
  %16 = load ptr, ptr %7, align 8, !tbaa !66
  %17 = getelementptr inbounds nuw %struct.asn1_string_st, ptr %16, i32 0, i32 3
  %18 = load i64, ptr %17, align 8, !tbaa !82
  %19 = and i64 %18, 7
  %20 = call i32 (ptr, ptr, ...) @BIO_printf(ptr noundef %15, ptr noundef @.str.22, i64 noundef %19)
  %21 = icmp sle i32 %20, 0
  br i1 %21, label %22, label %23

22:                                               ; preds = %14
  store i32 0, ptr %5, align 4
  br label %50

23:                                               ; preds = %14
  br label %30

24:                                               ; preds = %4
  %25 = load ptr, ptr %6, align 8, !tbaa !19
  %26 = call i32 @BIO_puts(ptr noundef %25, ptr noundef @.str.6)
  %27 = icmp sle i32 %26, 0
  br i1 %27, label %28, label %29

28:                                               ; preds = %24
  store i32 0, ptr %5, align 4
  br label %50

29:                                               ; preds = %24
  br label %30

30:                                               ; preds = %29, %23
  %31 = load ptr, ptr %7, align 8, !tbaa !66
  %32 = getelementptr inbounds nuw %struct.asn1_string_st, ptr %31, i32 0, i32 0
  %33 = load i32, ptr %32, align 8, !tbaa !77
  %34 = icmp sgt i32 %33, 0
  br i1 %34, label %35, label %49

35:                                               ; preds = %30
  %36 = load ptr, ptr %6, align 8, !tbaa !19
  %37 = load ptr, ptr %7, align 8, !tbaa !66
  %38 = getelementptr inbounds nuw %struct.asn1_string_st, ptr %37, i32 0, i32 2
  %39 = load ptr, ptr %38, align 8, !tbaa !76
  %40 = load ptr, ptr %7, align 8, !tbaa !66
  %41 = getelementptr inbounds nuw %struct.asn1_string_st, ptr %40, i32 0, i32 0
  %42 = load i32, ptr %41, align 8, !tbaa !77
  %43 = sext i32 %42 to i64
  %44 = load i32, ptr %8, align 4, !tbaa !23
  %45 = add nsw i32 %44, 2
  %46 = call i32 @BIO_hexdump(ptr noundef %36, ptr noundef %39, i64 noundef %43, i32 noundef %45)
  %47 = icmp ne i32 %46, 0
  br i1 %47, label %49, label %48

48:                                               ; preds = %35
  store i32 0, ptr %5, align 4
  br label %50

49:                                               ; preds = %35, %30
  store i32 1, ptr %5, align 4
  br label %50

50:                                               ; preds = %49, %48, %28, %22
  %51 = load i32, ptr %5, align 4
  ret i32 %51
}